(dp0
S'Residential'
p1
I1281
sS'Poetry'
p2
I250
sS'Winter Sports'
p3
I1390
sS'Olympics'
p4
I1128
sS'Body Art & Tattoo'
p5
I947
sS'Casseroles'
p6
I451
sS'Missions & Missionary Work'
p7
I964
sS'Home Care'
p8
I1545
sS'Extreme Sports'
p9
I772
sS'Mental Illness'
p10
I454
sS'Western'
p11
I905
sS'Authors'
p12
I192
sS'Experimental Psychology'
p13
I551
sS'Mystery'
p14
I427
sS'Arctic & Antarctica'
p15
I809
sS'Military'
p16
I55
sS'Diseases & Physical Ailments'
p17
I436
sS'Reference'
p18
I34
sS'Networking & System Administration'
p19
I899
sS'Educators'
p20
I605
sS'Natural Disasters'
p21
I798
sS'Early Childhood Education'
p22
I311
sS'Diabetic & Sugar-Free'
p23
I153
sS'Business Mathematics'
p24
I1214
sS'Business & Professional Growth'
p25
I1023
sS'Conventional'
p26
I805
sS'Embroidery'
p27
I1005
sS'Mystery & Wonders'
p28
I929
sS'Violence in Society'
p29
I806
sS'Agnosticism'
p30
I567
sS'Hockey'
p31
I1503
sS'Culture'
p32
I965
sS'Fish & Seafood'
p33
I575
sS'Interior Design'
p34
I592
sS'Game'
p35
I1054
sS'Low Salt'
p36
I491
sS'Women & Business'
p37
I619
sS'Budget'
p38
I198
sS'Scandinavian'
p39
I1546
sS'GRE'
p40
I1362
sS'Crocheting'
p41
I177
sS'Internet & Web Culture'
p42
I407
sS'Time Management'
p43
I96
sS'Hair'
p44
I1164
sS'Suspense'
p45
I411
sS'Pastry'
p46
I435
sS'Homebrewing, Distilling & Wine Making'
p47
I512
sS'Apocrypha & Pseudepigrapha'
p48
I993
sS'Divorce & Separation'
p49
I1504
sS'Hospice Care'
p50
I1345
sS'Privacy'
p51
I624
sS'Spies & Politics'
p52
I1580
sS'Health'
p53
I761
sS'Piano'
p54
I1262
sS'Epic'
p55
I134
sS'Thesauruses'
p56
I736
sS'Journalists'
p57
I373
sS'Drugs'
p58
I918
sS'Administration & Management'
p59
I1242
sS'Respiratory Therapy'
p60
I1144
sS'Herbal Remedies'
p61
I112
sS'Church Leadership'
p62
I564
sS'Social Psychology & Interactions'
p63
I325
sS'Bugs & Spiders'
p64
I145
sS'Biographical'
p65
I129
sS'Vegetarian'
p66
I1309
sS'British Detectives'
p67
I237
sS'Teams'
p68
I666
sS'Hacking'
p69
I1282
sS'Painting'
p70
I1505
sS'Financial'
p71
I948
sS'Frozen Desserts'
p72
I680
sS'Colombia'
p73
I1565
sS'Allergies'
p74
I89
sS'JavaScript'
p75
I1002
sS'Globalization'
p76
I849
sS'Digital'
p77
I741
sS'Special Diet'
p78
I128
sS'Human Resources & Personnel Management'
p79
I346
sS'Messianic Judaism'
p80
I1506
sS'Cocktails & Mixed Drinks'
p81
I476
sS'Anatomy'
p82
I930
sS'Prophecy'
p83
I734
sS'Horses'
p84
I164
sS'Web Design'
p85
I531
sS'Church History'
p86
I343
sS'Nonprofit Organizations & Charities'
p87
I746
sS'By Technique'
p88
I209
sS'Photography & Video'
p89
I580
sS'Development & Growth'
p90
I1587
sS'Sexual'
p91
I637
sS'Church Growth'
p92
I1444
sS'Alphabet'
p93
I514
sS'Iraq War'
p94
I681
sS'Tips'
p95
I1044
sS'Urban'
p96
I15
sS'Screenwriting'
p97
I485
sS'Pressure Cookers'
p98
I754
sS'Short Stories'
p99
I766
sS'Judaism'
p100
I1405
sS'Pain Management'
p101
I256
sS'Hair Loss'
p102
I1507
sS'Cacti & Succulents'
p103
I704
sS'Solitaire'
p104
I1031
sS'Psychology & Counseling'
p105
I248
sS'Total Quality Management'
p106
I812
sS'India'
p107
I667
sS'Planning'
p108
I595
sS'Agriculture'
p109
I1182
sS'Humor'
p110
I12
sS'Tablesetting'
p111
I1055
sS'Scientific Instruments'
p112
I1363
sS'Grandparenting'
p113
I1243
sS'Love, Sex & Marriage'
p114
I47
sS'Riding'
p115
I285
sS'Human-Computer Interaction'
p116
I931
sS'English as a Second Language'
p117
I705
sS'Patchwork'
p118
I646
sS'Office Automation'
p119
I1566
sS'Exercises'
p120
I1445
sS'Pies'
p121
I307
sS'Word'
p122
I581
sS'Video Production'
p123
I1365
sS'Dermatology'
p124
I1508
sS'Iran'
p125
I1346
sS'Massage'
p126
I571
sS'Software Development'
p127
I1190
sS'Vocabulary & Spelling'
p128
I1598
sS'National'
p129
I1183
sS'Foreign Language Dictionaries & Thesauruses'
p130
I568
sS'Assyria, Babylonia & Sumer'
p131
I911
sS'Stress Management'
p132
I217
sS'Individual Photographers'
p133
I1391
sS'U.S. Presidents'
p134
I1310
sS'Counting'
p135
I935
sS'Depression'
p136
I107
sS'Sports Medicine'
p137
I1112
sS'Sustainability & Green Design'
p138
I912
sS'Quick Workouts'
p139
I795
sS'Buddhism'
p140
I372
sS'Ancient, Classical & Medieval'
p141
I994
sS'Naturopathy'
p142
I356
sS'Family Relationships'
p143
I227
sS'Perennials'
p144
I1509
sS'Exercise & Fitness'
p145
I119
sS'Cozy'
p146
I187
sS'Roman Catholicism'
p147
I1510
sS'Learning Disabled'
p148
I688
sS'Twelve-Step Programs'
p149
I886
sS'Physiology'
p150
I1581
sS'Genealogy'
p151
I922
sS'Attention Deficit & Attention Deficit Hyperactivity Disorders'
p152
I972
sS'Law Enforcement'
p153
I510
sS'Decorative Arts & Design'
p154
I998
sS'Spelling'
p155
I1263
sS'Games & Strategy Guides'
p156
I1197
sS'English, Scottish & Welsh'
p157
I1019
sS'Sex'
p158
I235
sS'Genetically Engineered Food'
p159
I1244
sS'Language Studies'
p160
I997
sS'Parenting & Families'
p161
I158
sS'Retirement Planning'
p162
I481
sS'Video & Electronic'
p163
I577
sS'Coaching'
p164
I783
sS'Home Based'
p165
I101
sS'Angels'
p166
I375
sS'Pictorials'
p167
I1406
sS'Christian'
p168
I71
sS'Success'
p169
I215
sS'Bibles'
p170
I49
sS'Language Experience Approach'
p171
I854
sS'Care & Restoration'
p172
I1547
sS'Parenting'
p173
I143
sS'Mormonism'
p174
I176
sS'Orthodoxy'
p175
I900
sS'Marine Engineering'
p176
I1329
sS'Bookkeeping'
p177
I1056
sS'Minecraft'
p178
I656
sS'Pain Medicine'
p179
I1407
sS'Special Education'
p180
I1292
sS'Codependency'
p181
I441
sS'Jokes & Riddles'
p182
I120
sS'Decorative Arts'
p183
I505
sS'Pregnancy & Childbirth'
p184
I292
sS'Gymnastics'
p185
I1366
sS'Explore the World'
p186
I709
sS'Child Advocacy'
p187
I1511
sS'Crime & Criminals'
p188
I183
sS'Animal Rights'
p189
I1113
sS'European'
p190
I839
sS'Fish & Sharks'
p191
I1129
sS'Knitting'
p192
I329
sS'Records'
p193
I887
sS'Environmentalists & Naturalists'
p194
I1447
sS'Furniture'
p195
I1130
sS'Budget Travel'
p196
I457
sS'Windows Server'
p197
I844
sS'Metaphysical'
p198
I68
sS'Mood Disorders'
p199
I363
sS'Road Travel'
p200
I360
sS'Cambodia'
p201
I1548
sS'Swimming'
p202
I1071
sS'Ecology'
p203
I1448
sS'Mediterranean'
p204
I223
sS'Diet & Nutrition'
p205
I826
sS'Christianity'
p206
I593
sS'Anthologies'
p207
I33
sS'Flower Arranging'
p208
I1102
sS'Android'
p209
I1293
sS'Sustainable Living'
p210
I276
sS'Alcoholism'
p211
I246
sS'Gender & Sexuality'
p212
I928
sS'Biology'
p213
I936
sS'Other Religious Fiction'
p214
I1058
sS'Horror'
p215
I10
sS'Utilities'
p216
I1184
sS'Lotteries'
p217
I810
sS'Gothic & Romantic'
p218
I320
sS'Australian & Oceanian'
p219
I228
sS'Baby Animals'
p220
I218
sS'Baking'
p221
I154
sS'Brain Cancer'
p222
I1294
sS'Health, Fitness & Dieting'
p223
I63
sS'Communication & Media Studies'
p224
I665
sS'Industrial & Product Design'
p225
I1145
sS'Sales & Selling'
p226
I221
sS'Paranormal & Urban'
p227
I614
sS'Friendship'
p228
I188
sS'Firearms & Weapons'
p229
I1481
sS'Cruises'
p230
I1132
sS'Dance'
p231
I336
sS'Social Media How-to'
p232
I544
sS'British & Irish'
p233
I67
sS'Bulbs'
p234
I1367
sS'Reading & Writing'
p235
I1380
sS'Electricity'
p236
I1422
sS'Bahamas'
p237
I1246
sS'Heart Healthy'
p238
I241
sS'Holidays'
p239
I25
sS'Outdoor & Recreational Areas'
p240
I609
sS'Low Cholesterol'
p241
I291
sS'Vocabulary'
p242
I1264
sS'Sewing'
p243
I498
sS'Epidemiology'
p244
I1368
sS'Non-Vegan Vegetarian'
p245
I369
sS'Flowers'
p246
I1060
sS'Christian Books & Bibles'
p247
I194
sS'Science & Religion'
p248
I729
sS'Screenplays'
p249
I979
sS'Elections'
p250
I282
sS'Intermediate Readers'
p251
I867
sS'Animal Husbandry'
p252
I1133
sS'Voice'
p253
I847
sS'Environmental Economics'
p254
I635
sS'Cognitive Psychology'
p255
I638
sS'History & Theory'
p256
I755
sS'Risk Management'
p257
I1216
sS'Schizophrenia'
p258
I1482
sS'Thyroid Conditions'
p259
I1467
sS'Cooking Methods'
p260
I582
sS'Metal Work'
p261
I1512
sS'Emergency Medical Services'
p262
I1265
sS'Assessment'
p263
I908
sS'Historical Study & Educational Resources'
p264
I622
sS'Cars & Trucks'
p265
I623
sS'Soccer'
p266
I983
sS'Foreign Exchange'
p267
I449
sS'Python'
p268
I1513
sS'Graphic Novels'
p269
I376
sS'Handbooks & Manuals'
p270
I1226
sS'Dinosaurs'
p271
I148
sS'Zimbabwe'
p272
I1146
sS'Love Poems'
p273
I488
sS'Search Engine Optimization'
p274
I1024
sS'Collections, Catalogs & Exhibitions'
p275
I1185
sS'Gnosticism'
p276
I1266
sS'Mariology'
p277
I829
sS'Earth Sciences'
p278
I868
sS'Space Opera'
p279
I1198
sS'Job Hunting'
p280
I126
sS'Values'
p281
I268
sS'Homeopathy'
p282
I397
sS'Manga'
p283
I612
sS'Civil Rights & Liberties'
p284
I937
sS'Expeditions & Discoveries'
p285
I526
sS'Dutch Ovens'
p286
I913
sS'History & Culture'
p287
I890
sS'Astrology'
p288
I362
sS'Feminist Theory'
p289
I1045
sS'Garden Design'
p290
I370
sS'Crime'
p291
I1089
sS'Mid Atlantic'
p292
I1012
sS'Pets'
p293
I304
sS'Gay'
p294
I11
sS'Social Philosophy'
p295
I1061
sS'Censorship'
p296
I1408
sS'Calvinist'
p297
I932
sS'Social Issues'
p298
I556
sS'Greenhouses'
p299
I620
sS'Hotels & Inns'
p300
I1247
sS'Science, Nature & How It Works'
p301
I1090
sS'Wine'
p302
I756
sS'Oncology'
p303
I1567
sS'Art'
p304
I823
sS'Robotics'
p305
I869
sS'Science & Math'
p306
I859
sS'Teenagers'
p307
I572
sS'Microwave Cooking'
p308
I578
sS'Frames'
p309
I1549
sS'Regional Canada'
p310
I1248
sS'Human Rights'
p311
I974
sS'Anxiety Disorders'
p312
I269
sS'New Experiences'
p313
I424
sS'Marine Life'
p314
I190
sS'Aromatherapy'
p315
I106
sS'Beer'
p316
I357
sS'Conservation'
p317
I1046
sS'Landmarks & Monuments'
p318
I1424
sS'Business & Professional'
p319
I283
sS'Book of Common Prayer'
p320
I778
sS'Repair & Maintenance'
p321
I1392
sS'Poker'
p322
I1047
sS'Quran'
p323
I767
sS'Entomology'
p324
I1173
sS'Family Health'
p325
I1514
sS'Composers & Musicians'
p326
I539
sS'School'
p327
I537
sS'Environmental Science'
p328
I538
sS'Customer Service'
p329
I1037
sS'Darkroom & Processing'
p330
I1307
sS'Mortgages'
p331
I1217
sS'Youth Ministry'
p332
I750
sS'Reference & Interpretation'
p333
I1311
sS'Mennonite'
p334
I1330
sS'Evidence'
p335
I876
sS'Tai Chi & Qi Gong'
p336
I1349
sS'Pregnancy'
p337
I985
sS'Birds'
p338
I136
sS'Family Travel'
p339
I647
sS'Experiments & Projects'
p340
I1115
sS'Scotland'
p341
I1331
sS'Environment'
p342
I995
sS'Appomattox'
p343
I1425
sS'Stepparenting & Blended Families'
p344
I650
sS'Civilization & Culture'
p345
I949
sS'Constitutions'
p346
I720
sS'Existentialism'
p347
I1369
sS'Flowers & Plants'
p348
I1550
sS'Illustration'
p349
I685
sS'Parent & Adult Child'
p350
I1250
sS'Bread'
p351
I205
sS'Intellectual Property'
p352
I1409
sS'Theology'
p353
I234
sS'Mass Transit'
p354
I1551
sS'OS X'
p355
I1134
sS'Neuroscience'
p356
I1449
sS'Peer Pressure'
p357
I1137
sS'African American'
p358
I64
sS'Textiles & Costume'
p359
I1515
sS'Digital Photography'
p360
I231
sS'Culinary'
p361
I503
sS'Engineering'
p362
I784
sS'Hymns'
p363
I726
sS'Historiography'
p364
I1072
sS'Parodies'
p365
I88
sS'Introduction'
p366
I193
sS'Manners'
p367
I314
sS'Espionage'
p368
I475
sS'Criminal Procedure'
p369
I1091
sS'Asian American'
p370
I381
sS'Garnishes'
p371
I1032
sS'Fortune Telling'
p372
I697
sS'Scrabble'
p373
I796
sS'Ceramics'
p374
I1348
sS'Love & Romance'
p375
I16
sS'Kitchen Appliances'
p376
I691
sS'Philosophy & Social Aspects'
p377
I966
sS'Candlemaking'
p378
I195
sS'Skin Ailments'
p379
I469
sS'Diets & Nutrition'
p380
I1199
sS'Boats & Ships'
p381
I1151
sS'Pets & Animal Care'
p382
I323
sS'World War II'
p383
I161
sS'Witchcraft'
p384
I1462
sS'Color'
p385
I682
sS'Reference & Collections'
p386
I757
sS'eBay'
p387
I909
sS'Quaker'
p388
I1450
sS'Emigration & Immigration'
p389
I1249
sS'Self Help'
p390
I156
sS'Nonfiction'
p391
I1267
sS'Hearing Problems'
p392
I1062
sS'Artificial Intelligence'
p393
I1517
sS'Nuclear Physics'
p394
I901
sS'Wheat Free'
p395
I1295
sS'Dungeons & Dragons'
p396
I1568
sS'Digital Media Management'
p397
I732
sS'Disaster Relief'
p398
I266
sS'Organized Crime'
p399
I251
sS'Atlases'
p400
I737
sS'Academic Development'
p401
I1296
sS'Entrepreneurship'
p402
I46
sS'Science Fiction'
p403
I44
sS'Sports & Entertainment'
p404
I1200
sS'Lighting'
p405
I452
sS'Blood Type Diets'
p406
I894
sS'Drafting & Presentation'
p407
I1370
sS'Atlanta'
p408
I1518
sS'Thesauri'
p409
I1025
sS'Bible Study'
p410
I302
sS'Multicultural'
p411
I364
sS'Runaways'
p412
I879
sS'Domestic Life'
p413
I37
sS'Personal Growth'
p414
I212
sS'Sense & Sensation'
p415
I545
sS'Global'
p416
I1063
sS'Learning Disorders'
p417
I807
sS'Online Trading'
p418
I175
sS'Urban Life'
p419
I20
sS'Prophets'
p420
I1519
sS'Governmental'
p421
I1218
sS'Old Testament'
p422
I383
sS'Automotive'
p423
I714
sS'Appreciation'
p424
I1312
sS'Non-religious'
p425
I1219
sS'Mysteries & Detectives'
p426
I196
sS'English'
p427
I1186
sS'Inner Child'
p428
I598
sS'Railroads'
p429
I1073
sS'Reading & Phonics'
p430
I511
sS'Home Improvement & Design'
p431
I1483
sS'Juggling'
p432
I1152
sS'Ghosts'
p433
I21
sS'Technology'
p434
I1520
sS'Maine'
p435
I1410
sS'Talmud'
p436
I1426
sS'Abolition'
p437
I1521
sS'Lawyers & Judges'
p438
I1569
sS'Catholicism'
p439
I150
sS'Technique'
p440
I1165
sS'Consumer Behavior'
p441
I648
sS'Environmental Policy'
p442
I1116
sS'Rituals & Practice'
p443
I1033
sS'Conceptual'
p444
I1591
sS'Mammals'
p445
I264
sS'Printmaking'
p446
I1003
sS'Royalty'
p447
I430
sS'Aerospace'
p448
I785
sS'Designers'
p449
I1427
sS'Public Relations'
p450
I797
sS"Children's"
p451
I860
sS'Popular Economics'
p452
I1428
sS'Quotations'
p453
I508
sS'Orchids'
p454
I758
sS'Family'
p455
I294
sS'Epilepsy'
p456
I1268
sS'Wrestling'
p457
I532
sS'Personal Finance'
p458
I109
sS'Pacific'
p459
I1135
sS'Post-traumatic Stress Disorder'
p460
I954
sS'Comparative'
p461
I1166
sS'Children'
p462
I1220
sS'Jurisprudence'
p463
I1117
sS'Biscuits, Muffins & Scones'
p464
I127
sS'Education Theory'
p465
I296
sS'Instruction & Study'
p466
I1064
sS'Applique'
p467
I1201
sS'Pizza'
p468
I561
sS'default_cat'
p469
I0
sS'Marketing'
p470
I105
sS'Philosophers'
p471
I814
sS'Fruit'
p472
I763
sS'Architectural'
p473
I1283
sS'Gaia'
p474
I906
sS'Heist'
p475
I1582
sS'Psychological Thrillers'
p476
I500
sS'Medical Books'
p477
I961
sS'Comics & Graphic Novels'
p478
I225
sS'Pictorial'
p479
I1371
sS'Ukuleles'
p480
I999
sS'Insurance Law'
p481
I1118
sS'Presidents & Heads of State'
p482
I321
sS'Islam'
p483
I1026
sS'Fisheries & Aquaculture'
p484
I1393
sS'Hunting'
p485
I923
sS'Stagecraft'
p486
I870
sS'Genetic'
p487
I856
sS'Internet, Groupware, & Telecommunications'
p488
I393
sS'Acupuncture & Acupressure'
p489
I385
sS'Bolivia'
p490
I1136
sS'Mathematical & Statistical'
p491
I1552
sS'Jury'
p492
I1202
sS'Movie Tie-Ins'
p493
I116
sS'Health Law'
p494
I1522
sS'Internet & Education'
p495
I1350
sS'Graffiti & Street Art'
p496
I975
sS'World'
p497
I639
sS'Masonry'
p498
I1570
sS'Semantics'
p499
I1451
sS'World War I'
p500
I367
sS'Word Lists'
p501
I1284
sS'Wildlife'
p502
I692
sS'Turtles'
p503
I1038
sS'Erotic Photography'
p504
I668
sS'Logic & Language'
p505
I779
sS'Greek & Roman'
p506
I489
sS'Rome'
p507
I455
sS'Online Searching'
p508
I365
sS'South Beach Diet'
p509
I1332
sS'Study & Teaching'
p510
I880
sS'Industries & Professions'
p511
I1571
sS'Civil War'
p512
I166
sS'Studying & Workbooks'
p513
I790
sS'Musicals'
p514
I1553
sS'Mobile Phones, Tablets & E-Readers'
p515
I85
sS'Mixed Media'
p516
I1372
sS'Divination'
p517
I1078
sS'Ethics & Morality'
p518
I388
sS'Television'
p519
I986
sS'Legal'
p520
I733
sS'Ducks & Other Waterfowl'
p521
I189
sS'Lace & Tatting'
p522
I1065
sS'Business & Careers'
p523
I591
sS'Rice Cookers'
p524
I518
sS'Coffee & Tea'
p525
I284
sS'Planes & Aviation'
p526
I830
sS'Multigenerational'
p527
I808
sS'Geriatrics'
p528
I1297
sS'Astrophysics & Space Science'
p529
I791
sS'Ecosystems'
p530
I1107
sS'Commerce'
p531
I715
sS'Theater'
p532
I1228
sS'Weight Training'
p533
I273
sS'Nutrition'
p534
I171
sS'Depositions'
p535
I1351
sS'Book Design'
p536
I111
sS'Security'
p537
I786
sS'Options'
p538
I361
sS'Etiquette'
p539
I643
sS'Walking'
p540
I768
sS'South Africa'
p541
I967
sS'Money'
p542
I1313
sS'Teen & Young Adult'
p543
I59
sS'Craps'
p544
I1013
sS'Endangered Species'
p545
I738
sS'Lawyers & Criminals'
p546
I492
sS'Foreign Language Learning'
p547
I1411
sS'By Region'
p548
I1412
sS'Health & Stress'
p549
I1373
sS'Forensic Psychology'
p550
I943
sS'Anger Management'
p551
I800
sS'Asia'
p552
I674
sS'Stenciling'
p553
I1429
sS'Medicine'
p554
I873
sS'Buenos Aires'
p555
I1452
sS'Regency'
p556
I1103
sS'Vietnamese'
p557
I1352
sS'Physical Impairments'
p558
I845
sS'New England'
p559
I219
sS'Commercial'
p560
I673
sS'Utilitarianism'
p561
I1592
sS'Inflation'
p562
I939
sS'Slow Cookers'
p563
I60
sS'Hispanic'
p564
I316
sS'History'
p565
I108
sS'Consulting'
p566
I602
sS'Endocrinology & Metabolism'
p567
I1187
sS'Criminal Law'
p568
I1039
sS'ACT (American College Tests)'
p569
I1453
sS'Crafts, Hobbies & Home'
p570
I247
sS'Science & Technology'
p571
I871
sS'Reading Skills'
p572
I1554
sS'Japanese'
p573
I924
sS'Environmentalism'
p574
I955
sS'Etymology'
p575
I1523
sS'Blenders'
p576
I792
sS'Computers & Technology'
p577
I146
sS"St. Patrick's Day"
p578
I1524
sS'Plants & Animals'
p579
I442
sS'Jewish'
p580
I303
sS'Watercolor'
p581
I1092
sS'Herbs'
p582
I437
sS'Earthquakes & Volcanoes'
p583
I603
sS'Frogs & Toads'
p584
I611
sS'Poultry'
p585
I324
sS"Driver's Education"
p586
I1454
sS'Electrical Systems'
p587
I1555
sS'Butterflies'
p588
I1229
sS'Cats, Dogs & Animals'
p589
I178
sS'Tourist Destinations & Museums'
p590
I840
sS'Stories In Verse'
p591
I533
sS'Independence Day'
p592
I1455
sS'Sacred Writings'
p593
I1048
sS'Accounting'
p594
I61
sS'Soul Food'
p595
I850
sS'Public Health'
p596
I1525
sS'Self-Help'
p597
I272
sS'Political'
p598
I45
sS'Research'
p599
I330
sS'African-American & Black'
p600
I848
sS'Soups & Stews'
p601
I137
sS'Diet Therapy'
p602
I1251
sS'Aerobics'
p603
I347
sS'Mystery, Thriller & Suspense'
p604
I79
sS'Boys & Men'
p605
I391
sS'Fascism'
p606
I351
sS'Comic Strips'
p607
I278
sS'Leadership'
p608
I169
sS'Solar'
p609
I1203
sS'Colonial'
p610
I1430
sS'Applied'
p611
I1269
sS'Native American Studies'
p612
I1108
sS'Cajun & Creole'
p613
I861
sS'Nursery Rhymes'
p614
I450
sS'Violence'
p615
I752
sS'Social Skills'
p616
I1431
sS'Anxieties & Phobias'
p617
I261
sS'Radio Operation'
p618
I944
sS'Guides & Reviews'
p619
I358
sS'Continental European'
p620
I334
sS'Personal Transformation'
p621
I65
sS'Jesus, the Gospels & Acts'
p622
I546
sS'Numerology'
p623
I1079
sS'Patent, Trademark & Copyright'
p624
I1285
sS'Hip & Thigh Workouts'
p625
I1433
sS'E-Commerce'
p626
I1175
sS'Education'
p627
I263
sS'Criminology'
p628
I1204
sS'Professional Cooking'
p629
I1138
sS'Triathlon'
p630
I1298
sS'Funding'
p631
I542
sS'Sauces & Toppings'
p632
I631
sS'Management Science'
p633
I1014
sS'Papercrafts'
p634
I398
sS"Autism & Asperger's Syndrome"
p635
I1314
sS'Injuries & Rehabilitation'
p636
I1020
sS'Web Browsers'
p637
I1153
sS'Pasta & Noodles'
p638
I432
sS'Television Performers'
p639
I1188
sS'Self-Help & Psychology'
p640
I583
sS'Phonetics & Phonics'
p641
I1413
sS'Thai'
p642
I687
sS'Child Abuse'
p643
I206
sS'Immunology'
p644
I1484
sS'Windows OS'
p645
I660
sS'Atheism'
p646
I474
sS"Buyers' Guides"
p647
I1333
sS"Noah's Ark"
p648
I1093
sS'Prehistory'
p649
I769
sS'Excursion Guides'
p650
I293
sS'U. S. Presidents & First Ladies'
p651
I1353
sS'Consumer Guides'
p652
I211
sS'Gay & Lesbian'
p653
I1015
sS'Genetics'
p654
I902
sS'Medical Assistants'
p655
I1343
sS'Divorce'
p656
I160
sS'Travel'
p657
I445
sS'Large Quantities'
p658
I565
sS'Spiritual Growth'
p659
I157
sS'Medieval'
p660
I331
sS'Geology'
p661
I1556
sS'Negotiating'
p662
I730
sS'Puzzles'
p663
I172
sS'Reptiles & Amphibians'
p664
I249
sS'Cakes'
p665
I102
sS'How-to & Home Improvements'
p666
I706
sS'Soap Making'
p667
I1004
sS'Introductory & Beginning'
p668
I482
sS'Theories of Humor'
p669
I654
sS'Economic History'
p670
I831
sS'Spiritual'
p671
I573
sS'Educational Psychology'
p672
I678
sS'Low Fat'
p673
I144
sS'Colors'
p674
I1593
sS'Certification & Development'
p675
I562
sS'Basketball'
p676
I1252
sS'Water Sports'
p677
I1230
sS'Tennis'
p678
I1557
sS'Sufism'
p679
I1119
sS'Beauty, Grooming, & Style'
p680
I117
sS'Grammar'
p681
I747
sS'Foxes & Wolves'
p682
I271
sS'Jazz'
p683
I1572
sS'Systematic'
p684
I1354
sS'1900s'
p685
I956
sS'Game Theory'
p686
I1485
sS'Temperate'
p687
I1315
sS'Electrical & Electronics'
p688
I1456
sS'Do-It-Yourself'
p689
I267
sS'Consolidation & Merger'
p690
I1374
sS'Barcelona'
p691
I1432
sS'Zoology'
p692
I773
sS'Mental & Spiritual Healing'
p693
I509
sS'Beadwork'
p694
I501
sS'Physics'
p695
I1375
sS'Trigonometry'
p696
I1066
sS'Recording & Sound'
p697
I1316
sS'Cheese & Dairy'
p698
I1080
sS'Lice'
p699
I1253
sS'Service'
p700
I1176
sS'Boxing'
p701
I1486
sS'Fairy Tales'
p702
I348
sS'Education & Reference'
p703
I547
sS'Gambling'
p704
I903
sS'Arithmetic'
p705
I1457
sS'Camping & RVs'
p706
I914
sS'Social Activists'
p707
I891
sS'Ethics'
p708
I801
sS'Home & Community Care'
p709
I1414
sS'Farm Animals'
p710
I184
sS'Entertainment & Games'
p711
I438
sS'Playwriting'
p712
I1221
sS'Hymns & Hymnals'
p713
I1558
sS'Religious Buildings'
p714
I1317
sS'Parenting & Relationships'
p715
I297
sS'International Mystery & Crime'
p716
I497
sS'Trading Card Games'
p717
I1154
sS'Contemporary'
p718
I7
sS'London'
p719
I1040
sS"Manager's Guides to Computing"
p720
I1415
sS'Human Figure'
p721
I1286
sS'Democracy'
p722
I1487
sS'West'
p723
I1155
sS'International'
p724
I857
sS'Wicca'
p725
I392
sS'Midwest'
p726
I1231
sS'Men'
p727
I862
sS'Southeast'
p728
I957
sS'Preventive Medicine'
p729
I1458
sS'Photo Essays'
p730
I490
sS'Ruby'
p731
I1334
sS'Projects'
p732
I1459
sS'Earth-Based Religions'
p733
I1167
sS'Senior Travel'
p734
I1394
sS'Language Arts'
p735
I731
sS'Long-Term Care'
p736
I1254
sS'Biological Sciences'
p737
I920
sS'Commentaries'
p738
I350
sS'Prayer'
p739
I453
sS'Smoothies'
p740
I113
sS'Arts, Music & Photography'
p741
I1583
sS'Angelology & Demonology'
p742
I802
sS'Belize'
p743
I1584
sS'Individual Artists'
p744
I904
sS'Insects & Spiders'
p745
I811
sS"Paul's Letters"
p746
I958
sS'Great Britain'
p747
I140
sS'Journalism & Nonfiction'
p748
I915
sS'Sermons'
p749
I832
sS'Pen & Ink'
p750
I916
sS'Bike Repair'
p751
I1299
sS'Board Games'
p752
I881
sS'Genitourinary & STDs'
p753
I945
sS'Genre Fiction'
p754
I1318
sS'Sudoku'
p755
I1573
sS'Historic Preservation'
p756
I1156
sS'Motorcycles'
p757
I727
sS'Civil Rights'
p758
I1460
sS'Graphic Design'
p759
I1074
sS'Classics & Allegories'
p760
I232
sS'Aeronautics & Space'
p761
I815
sS'Welding'
p762
I1488
sS'Sports Psychology'
p763
I1461
sS'Cultural Heritage'
p764
I199
sS'South Atlantic'
p765
I1516
sS'Systems & Planning'
p766
I716
sS'Rock Climbing'
p767
I1157
sS'Japanese & Haiku'
p768
I851
sS'Mathematics'
p769
I1163
sS'Veterans'
p770
I606
sS'Algebra'
p771
I748
sS'Consciousness & Thought'
p772
I629
sS'Law'
p773
I702
sS'Self-Esteem & Self-Respect'
p774
I462
sS'Naval'
p775
I552
sS'Parent Participation'
p776
I841
sS'Country'
p777
I892
sS'Marriage & Family'
p778
I926
sS"Children's Health"
p779
I420
sS'Breeds'
p780
I226
sS'Decision-Making & Problem Solving'
p781
I409
sS'Amish'
p782
I43
sS'Mexican'
p783
I548
sS'Myanmar'
p784
I1585
sS'Modern'
p785
I1319
sS'Direct'
p786
I91
sS'Hardware'
p787
I222
sS'Agronomy'
p788
I1395
sS'History & Philosophy'
p789
I980
sS'Other Diets'
p790
I38
sS'Caribbean & West Indies'
p791
I1434
sS'Beginner Readers'
p792
I207
sS'Parents'
p793
I258
sS'Prayerbooks'
p794
I327
sS'Bed & Breakfasts'
p795
I1232
sS'Trivia'
p796
I433
sS'Potpourri'
p797
I1463
sS'Rites & Ceremonies'
p798
I1270
sS'Meditations'
p799
I332
sS'International & World Politics'
p800
I1255
sS'Trees'
p801
I696
sS'Civics & Citizenship'
p802
I1043
sS'Training'
p803
I125
sS'Arts & Humanities'
p804
I1320
sS'Microelectronics'
p805
I1464
sS'Entertaining & Holidays'
p806
I149
sS'Hypnosis'
p807
I553
sS'City Life'
p808
I1465
sS'Scuba'
p809
I919
sS'Seasonal'
p810
I308
sS'Nursing'
p811
I1300
sS'Juice'
p812
I103
sS'Business & Money'
p813
I203
sS'Quantum Theory'
p814
I824
sS'Breakfast'
p815
I179
sS'Vitamins & Supplements'
p816
I434
sS'Emergency'
p817
I1100
sS'Churches & Church Leadership'
p818
I893
sS'Electronic Documents'
p819
I185
sS'Interest'
p820
I1489
sS'Paleontology'
p821
I1594
sS'Cultural'
p822
I464
sS'Abuse'
p823
I625
sS'Rhetoric'
p824
I1466
sS'Girls & Women'
p825
I159
sS'Cleaning, Caretaking & Relocating'
p826
I51
sS'Occupational & Organizational'
p827
I969
sS'Crop Science'
p828
I1271
sS'Zoos'
p829
I390
sS'Spine-Chilling Horror'
p830
I115
sS'Programming & App Development'
p831
I780
sS'Project Management'
p832
I616
sS'Drama'
p833
I35
sS'Concordances'
p834
I742
sS'Ballroom'
p835
I1256
sS'Commercial Policy'
p836
I1423
sS'Bullies'
p837
I298
sS'Film & Video Art'
p838
I640
sS'Lions, Tigers & Leopards'
p839
I224
sS'Gluten Free'
p840
I110
sS'Obsessive Compulsive Disorder (OCD)'
p841
I753
sS'Cooking for One'
p842
I471
sS'Architecture'
p843
I774
sS'Spiritual Warfare'
p844
I386
sS'Yoga'
p845
I239
sS'Middle Eastern'
p846
I1435
sS'Political Science'
p847
I1104
sS'Book Making & Binding'
p848
I976
sS'Dolls'
p849
I599
sS'Europe'
p850
I138
sS'New Thought'
p851
I142
sS'Quizzes'
p852
I300
sS'Laboratory Medicine'
p853
I833
sS'Baseball'
p854
I389
sS'Russian'
p855
I596
sS'Mysticism'
p856
I465
sS'Branding & Logo Design'
p857
I1233
sS'Business Writing'
p858
I124
sS'Hispanic & Latino'
p859
I1174
sS'Criticism'
p860
I419
sS'Crisis Management'
p861
I863
sS'Philippines'
p862
I950
sS'Instruction'
p863
I743
sS'Americas'
p864
I244
sS'Kosher'
p865
I1205
sS'American'
p866
I265
sS'Sexuality'
p867
I240
sS'Doctors & Medicine'
p868
I557
sS'Curricula'
p869
I1206
sS'Climatology'
p870
I1027
sS'Motivation & Self-Improvement'
p871
I139
sS'Broadway & Musicals'
p872
I842
sS'Production & Operations'
p873
I1287
sS'Westerns'
p874
I24
sS'Jobs & Careers'
p875
I460
sS'Prosthodontics'
p876
I1272
sS'Budgeting & Money Management'
p877
I72
sS'Survival & Emergency Preparedness'
p878
I927
sS'Home Repair'
p879
I787
sS'Classical & Early'
p880
I1147
sS'Meditation'
p881
I74
sS'Pentecostal'
p882
I535
sS'Episcopalian'
p883
I1559
sS'Style & Clothing'
p884
I1021
sS'Mixed-Media'
p885
I513
sS'Sword & Sorcery'
p886
I1490
sS'Video Games'
p887
I186
sS'Devotionals'
p888
I90
sS'Exports & Imports'
p889
I1526
sS'Erotica'
p890
I3
sS'Multiple Sclerosis'
p891
I1335
sS'Dreams'
p892
I468
sS'Archery'
p893
I1491
sS'Etiquette Guides & Advice'
p894
I601
sS'Fantasy & Magic'
p895
I30
sS'Police Procedurals'
p896
I888
sS'Hardware & Robotics'
p897
I1468
sS'Mexico'
p898
I710
sS'Exegesis & Hermeneutics'
p899
I1469
sS'Linux'
p900
I987
sS'Party Planning'
p901
I597
sS'Taoism'
p902
I679
sS'Salads'
p903
I168
sS'Film'
p904
I341
sS'Mystery & Suspense'
p905
I27
sS'Mountain Climbing'
p906
I529
sS'Middle East'
p907
I589
sS'Comic Books'
p908
I1355
sS'Marriage & Divorce'
p909
I988
sS'Confederacy'
p910
I1041
sS'Confectionary'
p911
I877
sS'Philosophy'
p912
I444
sS'Parenting Boys'
p913
I644
sS'Financial Aid'
p914
I1234
sS'Weight Watchers'
p915
I1067
sS'Yaoi, Gay & Lesbian'
p916
I1321
sS'Social Services & Welfare'
p917
I641
sS'Victorian'
p918
I1436
sS'Football (American)'
p919
I793
sS'Conservatism & Liberalism'
p920
I617
sS'Savannah'
p921
I1376
sS'Information Theory'
p922
I781
sS'Raw'
p923
I270
sS'Money & Monetary Policy'
p924
I579
sS'Hoaxes & Deceptions'
p925
I872
sS'Rap'
p926
I1377
sS'Scottish'
p927
I661
sS'Ethnic Studies'
p928
I1094
sS'Non-US Legal Systems'
p929
I1148
sS'User Experience & Usability'
p930
I1470
sS'Stewardship'
p931
I693
sS'Sports'
p932
I40
sS'AIDS'
p933
I1471
sS'Single Author'
p934
I14
sS'Essays'
p935
I75
sS'Wine Pairing'
p936
I989
sS'Pottery & Ceramics'
p937
I1560
sS'Reproductive Medicine & Technology'
p938
I1574
sS'Astronomy'
p939
I414
sS'Toilet Training'
p940
I1120
sS'United States'
p941
I17
sS'Cartoons'
p942
I744
sS'Historical'
p943
I9
sS'History & Criticism'
p944
I399
sS'Investments'
p945
I504
sS'Western & Frontier'
p946
I73
sS'Cars, Trains & Things That Go'
p947
I816
sS'Boston'
p948
I1437
sS'Higher & Continuing Education'
p949
I962
sS'Fatherhood'
p950
I431
sS'Real Estate'
p951
I527
sS'Urban & Land Use Planning'
p952
I1177
sS'Linguistics'
p953
I82
sS'Performing Arts'
p954
I275
sS'Abdominal'
p955
I402
sS'Indian'
p956
I615
sS'Heavy Metal'
p957
I1356
sS'Rationalism'
p958
I1561
sS'Religion & Spirituality'
p959
I274
sS'Personality'
p960
I408
sS'Transportation'
p961
I1034
sS'Models'
p962
I1599
sS'Rocks & Minerals'
p963
I1095
sS'Digital Design'
p964
I1035
sS'Hospitality, Travel & Tourism'
p965
I1235
sS'Evangelism'
p966
I759
sS'Japanese Gardens'
p967
I1036
sS'Dehydrators'
p968
I1472
sS'Atkins Diet'
p969
I662
sS'House Plants'
p970
I735
sS'Parks & Campgrounds'
p971
I493
sS'Eckankar'
p972
I1105
sS'Romance'
p973
I8
sS'Information Systems'
p974
I1416
sS'Cancer'
p975
I378
sS'Elementary'
p976
I1438
sS'Word Games'
p977
I626
sS'Martial Arts'
p978
I627
sS'Sociology'
p979
I817
sS'Creativity'
p980
I262
sS'Outsourcing'
p981
I1396
sS'Brunch & Tea'
p982
I563
sS'Quick & Easy'
p983
I76
sS'Siblings'
p984
I574
sS'Classic Cars'
p985
I1301
sS'Diseases'
p986
I1207
sS'Alternate History'
p987
I131
sS'Drug Dependency'
p988
I384
sS'Coins & Medals'
p989
I1121
sS'Fashion Design'
p990
I380
sS'Germany'
p991
I305
sS'Christian Denominations & Sects'
p992
I686
sS'Dark Fantasy'
p993
I22
sS'Communications'
p994
I180
sS'Crafts for Children'
p995
I352
sS'Vocal'
p996
I1527
sS'Bridge'
p997
I1417
sS'Compulsive Behavior'
p998
I463
sS'Egypt'
p999
I594
sS'Zen'
p1000
I649
sS"Children's Books"
p1001
I32
sS'Baskets'
p1002
I938
sS'Chronic Fatigue Syndrome & Fibromyalgia'
p1003
I410
sS'Fishing'
p1004
I970
sS'PCs'
p1005
I1227
sS'Salvation Theory'
p1006
I794
sS'Interviewing'
p1007
I1378
sS'Cats, Lions & Tigers'
p1008
I1191
sS'French'
p1009
I838
sS'Worship & Devotion'
p1010
I630
sS'Television & Video'
p1011
I1528
sS'Magic'
p1012
I1273
sS'Gown'
p1013
I472
sS'Journal Writing'
p1014
I1000
sS'Needlework'
p1015
I963
sS'Thanksgiving'
p1016
I607
sS'Mashups'
p1017
I281
sS'Ancient World'
p1018
I1473
sS'Bahrain, Kuwait, Oman, Qatar, United-Arab-Emirates & Yemen'
p1019
I1492
sS'Rabbits'
p1020
I382
sS'Eschatology'
p1021
I458
sS'Themes'
p1022
I1274
sS'Tarot'
p1023
I1379
sS'Interpersonal Relations'
p1024
I135
sS"Men's Issues"
p1025
I1208
sS'PHP'
p1026
I1357
sS'Networks'
p1027
I1302
sS'Social Scientists & Psychologists'
p1028
I712
sS'Education & Training'
p1029
I825
sS'Adult Children of Alcoholics'
p1030
I1122
sS'Workbooks'
p1031
I1236
sS'France'
p1032
I669
sS'Roses'
p1033
I990
sS'Geometry & Topology'
p1034
I1337
sS'Self-Esteem'
p1035
I170
sS'Family Life'
p1036
I306
sS'Biographies & History'
p1037
I996
sS'Vietnam War'
p1038
I342
sS'Lutheran'
p1039
I1143
sS'Programming'
p1040
I882
sS'Whole Foods'
p1041
I1123
sS'Colonial Period'
p1042
I312
sS'Health Policy'
p1043
I1192
sS'Workplace'
p1044
I613
sS'African'
p1045
I1540
sS'Mental Health'
p1046
I204
sS'Digital Music - General'
p1047
I1474
sS'Special Needs'
p1048
I1209
sS'Cast Iron'
p1049
I739
sS'Fish'
p1050
I254
sS'Clay Crafts'
p1051
I1275
sS'Counseling'
p1052
I479
sS'Happiness'
p1053
I69
sS'Ethnomusicology'
p1054
I1529
sS'Nurse-Patient Relations'
p1055
I1358
sS'Panama'
p1056
I1106
sS'Farm Life'
p1057
I1237
sS'War'
p1058
I31
sS'Calculus'
p1059
I1081
sS'Museum Studies & Museology'
p1060
I1475
sS'Australia & New Zealand'
p1061
I895
sS'Macs'
p1062
I1096
sS'Guitar'
p1063
I483
sS'Networks, Protocols & APIs'
p1064
I1530
sS'Christian Living'
p1065
I118
sS'Women'
p1066
I141
sS'Ab Workouts'
p1067
I1082
sS'Dictionaries & Encyclopedias'
p1068
I484
sS'Instructional'
p1069
I286
sS"Children's Cookbooks"
p1070
I426
sS'Activities, Crafts & Games'
p1071
I1493
sS'Military Technology'
p1072
I1097
sS'Child Psychology'
p1073
I707
sS'Software'
p1074
I587
sS'Game Programming'
p1075
I1124
sS'Buying & Selling Homes'
p1076
I782
sS"Women's Health, Obstetrics & Gynecology"
p1077
I1531
sS'Italy'
p1078
I584
sS'Desktop Publishing'
p1079
I657
sS'Memoirs'
p1080
I29
sS'Writing Skills'
p1081
I80
sS'Natural Foods'
p1082
I92
sS'Strategy'
p1083
I473
sS'Mysteries'
p1084
I313
sS'Easter'
p1085
I536
sS'Adventure'
p1086
I130
sS'Puns & Wordplay'
p1087
I1397
sS'Organic'
p1088
I122
sS"Women's Fiction"
p1089
I66
sS'Faith'
p1090
I368
sS'Anarchism'
p1091
I1257
sS'Public Speaking'
p1092
I864
sS'Coming of Age'
p1093
I6
sS'Movies'
p1094
I1028
sS'Inspirational'
p1095
I317
sS'Olympic Games'
p1096
I1338
sS'Languages & Tools'
p1097
I585
sS'Distribution & Warehouse Management'
p1098
I1494
sS"Women's Issues"
p1099
I534
sS'New Age'
p1100
I569
sS'Women Sleuths'
p1101
I951
sS'Historical Fiction'
p1102
I167
sS'Internet'
p1103
I1210
sS'Comedy'
p1104
I104
sS'Rich & Famous'
p1105
I147
sS'1800s'
p1106
I1223
sS'Theory'
p1107
I827
sS'Football'
p1108
I1245
sS'Chocolate'
p1109
I387
sS'Water Gardens & Ponds'
p1110
I1398
sS'Ethnic'
p1111
I1339
sS'Textile & Costume'
p1112
I675
sS'Stretching'
p1113
I1006
sS'Weight Loss'
p1114
I39
sS'Small Business & Entrepreneurship'
p1115
I333
sS'Latin America'
p1116
I1586
sS'Death & Grief'
p1117
I461
sS'Methodist'
p1118
I1381
sS'India & South Asia'
p1119
I917
sS'Eating Disorders'
p1120
I456
sS'Epistemology'
p1121
I1178
sS'Management'
p1122
I335
sS'Java'
p1123
I1068
sS'Appetizers'
p1124
I318
sS'Paraguay & Uruguay'
p1125
I1595
sS'Pacific Rim'
p1126
I1189
sS'Beauty, Grooming & Style'
p1127
I404
sS'Instruction Methods'
p1128
I834
sS'Retailing'
p1129
I1303
sS'Antiques & Collectibles'
p1130
I1238
sS'Growing Up & Facts of Life'
p1131
I813
sS'Aviation'
p1132
I338
sS'Shamanism'
p1133
I694
sS'Lesbian'
p1134
I36
sS'Administrative Law'
p1135
I1495
sS'Roulette'
p1136
I1125
sS'Economics'
p1137
I1007
sS'Nature Writing & Essays'
p1138
I865
sS'Clergy'
p1139
I1098
sS'Fruits'
p1140
I394
sS'Russia'
p1141
I1109
sS'Project Planning & Management'
p1142
I1562
sS'Romania'
p1143
I1099
sS'Thrillers & Suspense'
p1144
I540
sS'Fundamentalism'
p1145
I852
sS'Telemarketing'
p1146
I1008
sS'Bears'
p1147
I252
sS'Mount St. Helens'
p1148
I1347
sS'Vocational'
p1149
I1258
sS'Urban & Regional'
p1150
I1224
sS'Speech'
p1151
I828
sS'Cultural Policy'
p1152
I1596
sS'Racing'
p1153
I1225
sS'Jewelry'
p1154
I340
sS'Technothrillers'
p1155
I1532
sS'Substance Abuse'
p1156
I287
sS'Seventh-Day Adventist'
p1157
I1158
sS'Channeling'
p1158
I260
sS'Smoking'
p1159
I337
sS'Baptist'
p1160
I1057
sS'Prehistoric'
p1161
I1211
sS'Animals'
p1162
I57
sS'Disabilities'
p1163
I818
sS'Holocaust'
p1164
I421
sS'Orphans & Foster Homes'
p1165
I1276
sS'Piloting & Flight Instruction'
p1166
I703
sS'Immune Systems'
p1167
I523
sS'Native American'
p1168
I97
sS'Irish'
p1169
I655
sS'Office'
p1170
I1304
sS'Romantic Comedy'
p1171
I530
sS'New Baby'
p1172
I676
sS'Africa'
p1173
I907
sS'Books'
p1174
I1
sS'Magic & Illusion'
p1175
I651
sS'Bible Study & Reference'
p1176
I633
sS'World Literature'
p1177
I353
sS'Devotional'
p1178
I1322
sS'Creativity & Genius'
p1179
I618
sS'Parallel Processing Computers'
p1180
I1399
sS'Terrorism'
p1181
I634
sS'Artists, Architects & Photographers'
p1182
I878
sS'Murder'
p1183
I721
sS'Educational & Nonfiction'
p1184
I775
sS'Logic & Brain Teasers'
p1185
I349
sS'Executive Branch'
p1186
I202
sS'Opera'
p1187
I1533
sS'Multilevel'
p1188
I447
sS'Humor & Entertainment'
p1189
I1193
sS'Memory Improvement'
p1190
I359
sS'Arthurian'
p1191
I708
sS'Time Travel'
p1192
I439
sS'State & Local'
p1193
I233
sS'Hydrology'
p1194
I1049
sS'Skills'
p1195
I354
sS'Mentally Disabled'
p1196
I1159
sS'Internal Medicine'
p1197
I1083
sS'Movements & Periods'
p1198
I446
sS'Tao Te Ching'
p1199
I1575
sS'Weddings'
p1200
I1001
sS'Schools & Teaching'
p1201
I242
sS'Asian'
p1202
I645
sS'Design & Construction'
p1203
I632
sS'Homeschooling'
p1204
I165
sS'Words, Language & Grammar'
p1205
I610
sS'Motivational'
p1206
I54
sS'Neuropsychology'
p1207
I522
sS'Landscapes & Seascapes'
p1208
I1576
sS'Boating'
p1209
I740
sS'Business'
p1210
I253
sS'Bonds'
p1211
I1168
sS'Actors & Entertainers'
p1212
I77
sS'Words'
p1213
I658
sS'Barbecuing & Grilling'
p1214
I301
sS'Container Gardening'
p1215
I163
sS'Canadian'
p1216
I1400
sS'Graphics & Multimedia'
p1217
I549
sS'Mice, Hamsters, Guinea Pigs & Squirrels'
p1218
I280
sS'Windows 8'
p1219
I506
sS'Leathercrafts'
p1220
I1084
sS'Classics'
p1221
I28
sS'Paganism'
p1222
I981
sS'Nervous System'
p1223
I770
sS'Turkey'
p1224
I1382
sS'Paleo'
p1225
I200
sS'Antietam'
p1226
I1534
sS'Counseling & Recovery'
p1227
I1139
sS'Vegetables'
p1228
I155
sS'Equipment'
p1229
I515
sS'Country Life'
p1230
I1069
sS'Basic Concepts'
p1231
I1075
sS'Trivia & Fun Facts'
p1232
I896
sS'Occult'
p1233
I13
sS'Israel & Palestine'
p1234
I628
sS'Scrapbooking'
p1235
I586
sS'Stepfamilies'
p1236
I1042
sS'Biographies'
p1237
I448
sS'Dictionaries'
p1238
I322
sS'Cosmology'
p1239
I1383
sS'Greek'
p1240
I588
sS'Marriage'
p1241
I339
sS'Resumes'
p1242
I659
sS'Commentary & Opinion'
p1243
I883
sS'Behavioral Sciences'
p1244
I1476
sS'Caribbean & West Indian'
p1245
I952
sS'Chinese'
p1246
I933
sS'Religious'
p1247
I83
sS'Energy Healing'
p1248
I238
sS'Mountain'
p1249
I1340
sS'Rock'
p1250
I374
sS'Ships'
p1251
I1076
sS'Costa Rica'
p1252
I1496
sS'Hard-Boiled'
p1253
I604
sS'How Things Work'
p1254
I1029
sS'Distance & Online Learning'
p1255
I1179
sS'Children & Teens'
p1256
I1341
sS'Burgers & Sandwiches'
p1257
I418
sS'Information Management'
p1258
I819
sS'Archaeology'
p1259
I835
sS'Letters & Correspondence'
p1260
I855
sS'Theme Parks'
p1261
I1288
sS'Electromagnetism'
p1262
I1212
sS'Sailing'
p1263
I717
sS'First Nations'
p1264
I1535
sS'Denmark'
p1265
I1401
sS'Theory of Computing'
p1266
I1259
sS'Energy Production & Extraction'
p1267
I502
sS'Trains'
p1268
I820
sS'Regional & International'
p1269
I771
sS'New Business Enterprises'
p1270
I636
sS'Revolution & Founding'
p1271
I425
sS'Marine Biology'
p1272
I897
sS'Gardening & Landscape Design'
p1273
I516
sS'Dysfunctional Relationships'
p1274
I182
sS'Pneumatology'
p1275
I1016
sS'Questions & Answers'
p1276
I699
sS'Injury Prevention'
p1277
I496
sS'Nationalism'
p1278
I1497
sS'Pilates'
p1279
I977
sS'Camping'
p1280
I220
sS'Applied Psychology'
p1281
I309
sS'Cats'
p1282
I78
sS'Goddesses'
p1283
I1140
sS'Australian'
p1284
I642
sS'Nature & Ecology'
p1285
I1149
sS'Composition'
p1286
I1277
sS'Political Freedom'
p1287
I1085
sS'Pharmacology'
p1288
I608
sS'Acting & Auditioning'
p1289
I558
sS'Christmas'
p1290
I56
sS'Prophecies'
p1291
I477
sS'Economic Conditions'
p1292
I480
sS'Shows'
p1293
I1289
sS'Diets & Weight Loss'
p1294
I344
sS'Native North & South Americans'
p1295
I1439
sS'Sports & Outdoors'
p1296
I1342
sS'Canning & Preserving'
p1297
I86
sS'Technical'
p1298
I1160
sS'Travelers & Explorers'
p1299
I197
sS'Dating & Relationships'
p1300
I466
sS'British'
p1301
I400
sS'Domestic Relations'
p1302
I1498
sS'Japan'
p1303
I1111
sS'Credit Ratings & Repair'
p1304
I1239
sS'Running & Jogging'
p1305
I600
sS'Weather'
p1306
I728
sS'Lung & Respiratory Diseases'
p1307
I429
sS'Greece'
p1308
I670
sS'Zen Philosophy'
p1309
I718
sS'Cycling'
p1310
I701
sS'Microbiology'
p1311
I1536
sS'Supernatural'
p1312
I559
sS'Ministry & Evangelism'
p1313
I711
sS'Humor & Satire'
p1314
I652
sS'Kidnapping'
p1315
I1194
sS'Exploration & Discoveries'
p1316
I803
sS'Catalogs & Directories'
p1317
I566
sS'Blackjack'
p1318
I978
sS'Dye'
p1319
I1161
sS'Afghan War'
p1320
I377
sS'Communism & Socialism'
p1321
I524
sS'Adobe Photoshop'
p1322
I1440
sS'White Collar Crime'
p1323
I884
sS'Almanacs & Yearbooks'
p1324
I1563
sS'Reincarnation'
p1325
I379
sS'Encyclopedias'
p1326
I991
sS'Communicative Disorders'
p1327
I982
sS'Knots, Macrame & Rope Work'
p1328
I1402
sS'Folklore & Mythology'
p1329
I677
sS'Statistics'
p1330
I1359
sS'Science Fiction & Fantasy'
p1331
I1477
sS'Witnesses'
p1332
I1050
sS'Bipolar'
p1333
I653
sS"Women's Studies"
p1334
I846
sS'Criticism & Theory'
p1335
I764
sS'Cookbooks, Food & Wine'
p1336
I93
sS'Ethnic & National'
p1337
I208
sS'Model Trains'
p1338
I1141
sS'China'
p1339
I1086
sS'Essays & Commentary'
p1340
I1360
sS'Biographies & Memoirs'
p1341
I121
sS'Arts & Photography'
p1342
I440
sS'Student Life'
p1343
I745
sS'Short Story Collections'
p1344
I216
sS'West South Central'
p1345
I1017
sS'Drawing'
p1346
I428
sS'Card Games'
p1347
I1499
sS'Money & Saving'
p1348
I1051
sS'Guides'
p1349
I114
sS'Gothic'
p1350
I494
sS'Health Care Delivery'
p1351
I1215
sS'Landscape'
p1352
I762
sS'Bar Examination'
p1353
I1384
sS'Administration'
p1354
I1052
sS'Peripherals'
p1355
I953
sS'General Broadcasting'
p1356
I1577
sS'Electrical'
p1357
I1260
sS'Latin American'
p1358
I1537
sS'Collections & Anthologies'
p1359
I41
sS'Wine & Spirits'
p1360
I1126
sS'North'
p1361
I1169
sS'Adolescent Psychology'
p1362
I1418
sS'Eastern'
p1363
I406
sS'Tribal & Ethnic'
p1364
I1305
sS'Adult'
p1365
I1110
sS'Web Services'
p1366
I921
sS'Family Activities'
p1367
I413
sS'Stocks'
p1368
I401
sS'Rice & Grains'
p1369
I310
sS'Holidays & Celebrations'
p1370
I940
sS'Irritable Bowel Syndrome'
p1371
I1170
sS'Mice, Hamsters & Guinea Pigs'
p1372
I836
sS'Herbs, Spices & Condiments'
p1373
I277
sS'Popes & the Vatican'
p1374
I663
sS'Classical'
p1375
I934
sS'Portraits'
p1376
I713
sS'Spirituality'
p1377
I210
sS'Economic Policy & Development'
p1378
I1101
sS'Travel Maps'
p1379
I968
sS'Ancient Civilizations'
p1380
I415
sS'Aging'
p1381
I173
sS'Business of Art'
p1382
I1009
sS'College Entrance'
p1383
I1306
sS'Intelligence & Espionage'
p1384
I405
sS'Other'
p1385
I467
sS'Discipleship'
p1386
I973
sS'Banks & Banking'
p1387
I776
sS'Bovine Medicine'
p1388
I1441
sS'Eye Problems'
p1389
I722
sS'Reform & Policy'
p1390
I788
sS'Dogs'
p1391
I48
sS'Blogging & Blogs'
p1392
I229
sS'Wisdom Literature'
p1393
I789
sS'Healing'
p1394
I94
sS'Serial Killers'
p1395
I214
sS'Decorating'
p1396
I162
sS'Fairy Tales, Folk Tales & Myths'
p1397
I87
sS'Death & Dying'
p1398
I760
sS'Pencil'
p1399
I1131
sS'College Guides'
p1400
I1478
sS'Scientology'
p1401
I1114
sS'Grief & Bereavement'
p1402
I517
sS'Commodities'
p1403
I560
sS'Games'
p1404
I259
sS'Wok Cookery'
p1405
I941
sS"Men's Grooming & Style"
p1406
I723
sS'Free Will & Determinism'
p1407
I683
sS'Alligators & Crocodiles'
p1408
I700
sS'Family Saga'
p1409
I18
sS'Prague'
p1410
I1261
sS'Publishing & Books'
p1411
I290
sS'True Crime'
p1412
I151
sS'Korean War'
p1413
I1385
sS'Dementia'
p1414
I366
sS'Single Women'
p1415
I1419
sS'Operating Systems'
p1416
I1538
sS'Paris'
p1417
I1323
sS'Ecuador & Galapagos Islands'
p1418
I866
sS'Religion'
p1419
I525
sS'Oil Painting'
p1420
I1171
sS'Public'
p1421
I1479
sS'Math'
p1422
I1597
sS'Care & Health'
p1423
I821
sS'Colored Pencil'
p1424
I1324
sS'Contemporary Women'
p1425
I4
sS'Developmental Psychology'
p1426
I959
sS'Whiskey'
p1427
I1325
sS'Stories'
p1428
I1053
sS'Fitness'
p1429
I1539
sS'Popular'
p1430
I499
sS'Fertility'
p1431
I946
sS'Public Affairs & Administration'
p1432
I355
sS'Italian'
p1433
I459
sS'Federal Jurisdiction'
p1434
I960
sS'Murder & Mayhem'
p1435
I70
sS'Religion, Politics & State'
p1436
I777
sS'Investing'
p1437
I395
sS'Public Finance'
p1438
I1420
sS'Adoption'
p1439
I576
sS'Pastoral Resources'
p1440
I889
sS'Skin Care'
p1441
I971
sS'Adult & Continuing Education'
p1442
I371
sS'Experimental Methods'
p1443
I885
sS'Client-Server Systems'
p1444
I1087
sS'Trucks & Vans'
p1445
I1018
sS'Landscapes'
p1446
I1088
sS'Vocational Guidance'
p1447
I1364
sS'Motherhood'
p1448
I315
sS'Probability & Statistics'
p1449
I874
sS'Circus'
p1450
I992
sS'Good & Evil'
p1451
I1195
sS'Photojournalism'
p1452
I1446
sS'Parenting Girls'
p1453
I1162
sS'Fiction'
p1454
I58
sS'Music'
p1455
I403
sS'Crafts & Hobbies'
p1456
I181
sS'General & Reference'
p1457
I1600
sS'Social Sciences'
p1458
I689
sS'Conspiracies'
p1459
I1308
sS'Glass & Glassware'
p1460
I590
sS'Systems Analysis & Design'
p1461
I1588
sS'Editing'
p1462
I487
sS'Breast Cancer'
p1463
I1142
sS'Company Profiles'
p1464
I910
sS'Sleep Disorders'
p1465
I213
sS'Personal Hygiene'
p1466
I671
sS'Chiropractic'
p1467
I1386
sS'New Testament'
p1468
I326
sS'Jewish American'
p1469
I295
sS'Fundamentals & Skills'
p1470
I1442
sS'Alternative Medicine'
p1471
I100
sS'Techniques'
p1472
I1564
sS'Urantia'
p1473
I1222
sS'Anglican'
p1474
I1290
sS'Illness'
p1475
I1196
sS'Gardening'
p1476
I1443
sS'Popular Culture'
p1477
I898
sS'Halloween'
p1478
I230
sS'General'
p1479
I19
sS'Preaching'
p1480
I1541
sS'Skiing'
p1481
I1213
sS'Natural Resources'
p1482
I1070
sS'Literary'
p1483
I23
sS'Low Carbohydrate'
p1484
I98
sS'Prejudice & Racism'
p1485
I1077
sS'Chess'
p1486
I570
sS'Inspirational & Religious'
p1487
I925
sS'Hinduism'
p1488
I684
sS'Outdoor Cooking'
p1489
I507
sS'Viking'
p1490
I858
sS'Hunting & Fishing'
p1491
I1279
sS'Canon Law'
p1492
I1589
sS'Fish & Aquariums'
p1493
I541
sS'Safety & First Aid'
p1494
I299
sS'Mutual Funds'
p1495
I719
sS'Activity Books'
p1496
I62
sS'Chapter Books'
p1497
I412
sS'Potatoes'
p1498
I550
sS'Medical'
p1499
I50
sS'National & International Security'
p1500
I1127
sS'Emotions & Feelings'
p1501
I245
sS'Literary & Religious'
p1502
I1361
sS'Norse'
p1503
I478
sS'Fantasy'
p1504
I26
sS'Meats'
p1505
I255
sS'Literature & Fiction'
p1506
I2
sS'U.S. Regional'
p1507
I1336
sS'Gourmet'
p1508
I319
sS'Apes & Monkeys'
p1509
I417
sS'Emotions'
p1510
I243
sS'Ideologies & Doctrines'
p1511
I1578
sS'Gaming'
p1512
I942
sS'Addiction & Recovery'
p1513
I1542
sS'Turkish'
p1514
I1403
sS'Celebrities & TV Shows'
p1515
I1500
sS'Plumbing & Household Automation'
p1516
I1579
sS'Pigs'
p1517
I519
sS'Houses & Hotels'
p1518
I621
sS'By Climate'
p1519
I1501
sS'Food Counters'
p1520
I257
sS'Apologetics'
p1521
I554
sS'Toxicology'
p1522
I984
sS'Handwriting'
p1523
I1543
sS'Australia & Oceania'
p1524
I765
sS'Cartooning'
p1525
I555
sS'Metaphysics'
p1526
I521
sS'Cookies'
p1527
I152
sS'Fashion'
p1528
I288
sS'England'
p1529
I486
sS'Oil & Energy'
p1530
I1502
sS'Elephants'
p1531
I443
sS'Paranormal'
p1532
I289
sS'Desserts'
p1533
I123
sS'Study Guides'
p1534
I396
sS'Oceania'
p1535
I1291
sS'Customs & Traditions'
p1536
I1326
sS'Puzzles & Games'
p1537
I1180
sS'Industrial Design'
p1538
I1387
sS'Satire'
p1539
I52
sS'Aging Parents'
p1540
I672
sS'Lesson Planning'
p1541
I1590
sS'Purchasing & Buying'
p1542
I804
sS'Easter & Lent'
p1543
I698
sS'Biblical'
p1544
I1327
sS'Singapore'
p1545
I1388
sS'Political Advocacy'
p1546
I664
sS'Family Practice'
p1547
I1240
sS'Knitting & Crochet'
p1548
I191
sS'Futures'
p1549
I875
sS'Early Childhood'
p1550
I201
sS'Musculoskeletal Diseases'
p1551
I416
sS'Management & Leadership'
p1552
I495
sS'Christology'
p1553
I751
sS'Chemistry'
p1554
I1328
sS'Microsoft'
p1555
I1059
sS'Action & Adventure'
p1556
I5
sS'Medical Conditions & Diseases'
p1557
I799
sS'South America'
p1558
I1344
sS'Viruses'
p1559
I1010
sS'Medical History & Records'
p1560
I1389
sS'Crystals'
p1561
I1278
sS'Travel Writing'
p1562
I725
sS'Beverages & Wine'
p1563
I174
sS'Scientists'
p1564
I132
sS'Religious & Liturgical'
p1565
I822
sS"Valentine's Day"
p1566
I520
sS'Sea Adventures'
p1567
I84
sS'Study Skills'
p1568
I236
sS'Finance'
p1569
I95
sS'Vegan'
p1570
I279
sS'Child'
p1571
I749
sS'Quilts & Quilting'
p1572
I328
sS'Criticism & Essays'
p1573
I1181
sS'Bhagavad Gita'
p1574
I1172
sS'Detoxes & Cleanses'
p1575
I133
sS'Heart Disease'
p1576
I422
sS'Industrial'
p1577
I724
sS'Golf'
p1578
I528
sS'Baby Food'
p1579
I853
sS'Gettysburg'
p1580
I470
sS'Superheroes'
p1581
I99
sS'Holistic'
p1582
I345
sS'Spirits'
p1583
I1011
sS'Paper Ephemera'
p1584
I1022
sS'Electronics'
p1585
I1241
sS'Organizational Learning'
p1586
I1480
sS'Limericks & Humorous Verse'
p1587
I543
sS'Authorship'
p1588
I81
sS'Manufacturing'
p1589
I1404
sS'E-commerce'
p1590
I53
sS'Musical'
p1591
I1280
sS'South'
p1592
I423
sS'Humorous'
p1593
I1544
sS'Criticism & Interpretation'
p1594
I837
sS'Sleep'
p1595
I42
sS'Polar Regions'
p1596
I1150
sS'Spanish'
p1597
I695
sS'Shooting'
p1598
I690
sS'Free Enterprise'
p1599
I843
sS'Media Tie-In'
p1600
I1030
sS'Geography'
p1601
I1421
s.